target datalayout = "e-m:e-p270:32:32-p271:32:32-p272:64:64-i64:64-i128:128-f80:128-n8:16:32:64-S128"
target triple = "x86_64-pc-linux-gnu"

@stderr = external global ptr, align 8
@.str.67 = private unnamed_addr constant [18 x i8] c"--- Loop #%d ---\0A\00", align 1
@.str.68 = private unnamed_addr constant [13 x i32] [i32 46, i32 47, i32 95, i32 116, i32 101, i32 115, i32 116, i32 101, i32 109, i32 98, i32 101, i32 100, i32 0], align 4
@.str.69 = private unnamed_addr constant [11 x i8] c"Finalized\0A\00", align 1

; Function Attrs: nounwind uwtable
define internal void @_testembed_Py_Initialize() #0 {
  call void @Py_SetProgramName(ptr noundef @.str.68)
  call void @Py_Initialize()
  ret void
}

; Function Attrs: nounwind uwtable
define internal i32 @test_repeated_simple_init() #0 {
  %1 = alloca i32, align 4
  call void @llvm.lifetime.start.p0(i64 4, ptr %1) #11
  store i32 1, ptr %1, align 4, !tbaa !4
  br label %2

2:                                                ; preds = %13, %0
  %3 = load i32, ptr %1, align 4, !tbaa !4
  %4 = icmp sle i32 %3, 4
  br i1 %4, label %6, label %5

5:                                                ; preds = %2
  call void @llvm.lifetime.end.p0(i64 4, ptr %1) #11
  br label %16

6:                                                ; preds = %2
  %7 = load ptr, ptr @stderr, align 8, !tbaa !21
  %8 = load i32, ptr %1, align 4, !tbaa !4
  %9 = call i32 (ptr, ptr, ...) @fprintf(ptr noundef %7, ptr noundef @.str.67, i32 noundef %8) #11
  %10 = load ptr, ptr @stderr, align 8, !tbaa !21
  %11 = call i32 @fflush(ptr noundef %10)
  call void @_testembed_Py_Initialize()
  call void @Py_Finalize()
  %12 = call i32 (ptr, ...) @printf(ptr noundef @.str.69)
  br label %13

13:                                               ; preds = %6
  %14 = load i32, ptr %1, align 4, !tbaa !4
  %15 = add i32 %14, 1
  store i32 %15, ptr %1, align 4, !tbaa !4
  br label %2, !llvm.loop !24

16:                                               ; preds = %5
  ret i32 0
}