; Function Attrs: cold nounwind uwtable
define internal noundef i32 @test_repeated_simple_init() #4 {
  br label %2

1:                                                ; preds = %2
  ret i32 0

2:                                                ; preds = %0, %2
  %.03 = phi i32 [ 1, %0 ], [ %7, %2 ]
  %3 = load ptr, ptr @stderr, align 8, !tbaa !16
  %4 = tail call i32 (ptr, ptr, ...) @fprintf(ptr noundef %3, ptr noundef nonnull @.str.67, i32 noundef %.03) #21
  %5 = load ptr, ptr @stderr, align 8, !tbaa !16
  %6 = tail call i32 @fflush(ptr noundef %5)
  tail call void @Py_SetProgramName(ptr noundef nonnull @.str.68) #20
  tail call void @Py_Initialize() #20
  tail call void @Py_Finalize() #20
  %puts = tail call i32 @puts(ptr nonnull dereferenceable(1) @str)
  %7 = add nuw nsw i32 %.03, 1
  %exitcond.not = icmp eq i32 %7, 5
  br i1 %exitcond.not, label %1, label %2, !llvm.loop !20
}